(lp0
ccopy_reg
_reconstructor
p1
(c__main__
Task
p2
c__builtin__
object
p3
Ntp4
Rp5
(dp6
S'priority'
p7
VHigh
p8
sS'description'
p9
Vlkjfslkfj
p10
sS'email'
p11
Vljlkjf@kjflkj.com
p12
sbag1
(g2
g3
Ntp13
Rp14
(dp15
g7
VHigh
p16
sg9
Vlkjflskj@lkjf
p17
sg11
Vlkjlkjf@lkjfslk.com
p18
sbag1
(g2
g3
Ntp19
Rp20
(dp21
g7
VHigh
p22
sg9
Vlkjlkjflkj lkj lkjlfkjl 
p23
sg11
VkljlkjF@lkjfl.com
p24
sba.